target datalayout = "e-m:e-p270:32:32-p271:32:32-p272:64:64-i64:64-i128:128-f80:128-n8:16:32:64-S128"
target triple = "x86_64-pc-linux-gnu"

%"class.cvc5::internal::proof::AlfListNodeConverter" = type { %"class.cvc5::internal::NodeConverter.base", ptr, ptr }
%"class.cvc5::internal::NodeConverter.base" = type <{ ptr, ptr, %"class.std::unordered_map", %"class.std::unordered_map", %"class.std::unordered_map.2", %"class.std::unordered_map.2", i8 }>
%"class.std::unordered_map" = type { %"class.std::_Hashtable" }
%"class.std::_Hashtable" = type { ptr, i64, %"struct.std::__detail::_Hash_node_base", i64, %"struct.std::__detail::_Prime_rehash_policy", ptr }
%"struct.std::__detail::_Hash_node_base" = type { ptr }
%"struct.std::__detail::_Prime_rehash_policy" = type { float, i64 }
%"class.std::unordered_map.2" = type { %"class.std::_Hashtable.3" }
%"class.std::_Hashtable.3" = type { ptr, i64, %"struct.std::__detail::_Hash_node_base", i64, %"struct.std::__detail::_Prime_rehash_policy", ptr }

; Function Attrs: mustprogress uwtable
define hidden void @_ZN4cvc58internal5proof20AlfListNodeConverterC2EPNS0_11NodeManagerERNS1_20BaseAlfNodeConverterERKSt3mapINS0_12NodeTemplateILb1EEES9_St4lessIS9_ESaISt4pairIKS9_S9_EEE(ptr noundef nonnull align 8 dereferenceable(264) %0, ptr noundef %1, ptr noundef nonnull align 8 dereferenceable(241) %2, ptr noundef nonnull align 8 dereferenceable(48) %3) unnamed_addr #4 align 2 {
  %5 = alloca ptr, align 8
  %6 = alloca ptr, align 8
  %7 = alloca ptr, align 8
  %8 = alloca ptr, align 8
  store ptr %0, ptr %5, align 8, !tbaa !3
  store ptr %1, ptr %6, align 8, !tbaa !8
  store ptr %2, ptr %7, align 8, !tbaa !10
  store ptr %3, ptr %8, align 8, !tbaa !12
  %9 = load ptr, ptr %5, align 8
  %10 = load ptr, ptr %6, align 8, !tbaa !8
  call void @_ZN4cvc58internal13NodeConverterC2EPNS0_11NodeManagerEb(ptr noundef nonnull align 8 dereferenceable(241) %9, ptr noundef %10, i1 noundef zeroext true)
  store ptr getelementptr inbounds inrange(-16, 64) ({ [10 x ptr] }, ptr @_ZTVN4cvc58internal5proof20AlfListNodeConverterE, i32 0, i32 0, i32 2), ptr %9, align 8, !tbaa !14
  %11 = getelementptr inbounds nuw %"class.cvc5::internal::proof::AlfListNodeConverter", ptr %9, i32 0, i32 1
  %12 = load ptr, ptr %7, align 8, !tbaa !10
  store ptr %12, ptr %11, align 8, !tbaa !10
  %13 = getelementptr inbounds nuw %"class.cvc5::internal::proof::AlfListNodeConverter", ptr %9, i32 0, i32 2
  %14 = load ptr, ptr %8, align 8, !tbaa !12
  store ptr %14, ptr %13, align 8, !tbaa !12
  ret void
}