; Function Attrs: mustprogress uwtable
define hidden void @_ZN4cvc58internal5proof20AlfListNodeConverterC2EPNS0_11NodeManagerERNS1_20BaseAlfNodeConverterERKSt3mapINS0_12NodeTemplateILb1EEES9_St4lessIS9_ESaISt4pairIKS9_S9_EEE(ptr noundef nonnull align 8 dereferenceable(264) %0, ptr noundef %1, ptr noundef nonnull align 8 dereferenceable(241) %2, ptr noundef nonnull align 8 dereferenceable(48) %3) unnamed_addr #3 align 2 {
  tail call void @_ZN4cvc58internal13NodeConverterC2EPNS0_11NodeManagerEb(ptr noundef nonnull align 8 dereferenceable(241) %0, ptr noundef %1, i1 noundef zeroext true)
  store ptr getelementptr inbounds nuw inrange(-16, 64) (i8, ptr @_ZTVN4cvc58internal5proof20AlfListNodeConverterE, i64 16), ptr %0, align 8, !tbaa !3
  %5 = getelementptr inbounds nuw i8, ptr %0, i64 248
  store ptr %2, ptr %5, align 8, !tbaa !6
  %6 = getelementptr inbounds nuw i8, ptr %0, i64 256
  store ptr %3, ptr %6, align 8, !tbaa !10
  ret void
}